target datalayout = "e-m:e-p270:32:32-p271:32:32-p272:64:64-i64:64-i128:128-f80:128-n8:16:32:64-S128"
target triple = "x86_64-pc-linux-gnu"

%struct.curl_slist = type { ptr, ptr }

@.str.28 = private unnamed_addr constant [20 x i8] c"Build-time engines:\00", align 1
@.str.29 = private unnamed_addr constant [6 x i8] c"  %s\0A\00", align 1
@.str.30 = private unnamed_addr constant [9 x i8] c"  <none>\00", align 1

; Function Attrs: nounwind uwtable
define dso_local void @tool_list_engines() #0 {
  %1 = alloca ptr, align 8
  %2 = alloca ptr, align 8
  call void @llvm.lifetime.start.p0(i64 8, ptr %1) #9
  %3 = call ptr @curl_easy_init()
  store ptr %3, ptr %1, align 8, !tbaa !64
  call void @llvm.lifetime.start.p0(i64 8, ptr %2) #9
  store ptr null, ptr %2, align 8, !tbaa !65
  %4 = load ptr, ptr %1, align 8, !tbaa !64
  %5 = call i32 (ptr, i32, ...) @curl_easy_getinfo(ptr noundef %4, i32 noundef 4194331, ptr noundef %2)
  %6 = call i32 @puts(ptr noundef @.str.28)
  %7 = load ptr, ptr %2, align 8, !tbaa !65
  %8 = icmp ne ptr %7, null
  br i1 %8, label %9, label %23

9:                                                ; preds = %0
  br label %10

10:                                               ; preds = %18, %9
  %11 = load ptr, ptr %2, align 8, !tbaa !65
  %12 = icmp ne ptr %11, null
  br i1 %12, label %13, label %22

13:                                               ; preds = %10
  %14 = load ptr, ptr %2, align 8, !tbaa !65
  %15 = getelementptr inbounds nuw %struct.curl_slist, ptr %14, i32 0, i32 0
  %16 = load ptr, ptr %15, align 8, !tbaa !67
  %17 = call i32 (ptr, ...) @curl_mprintf(ptr noundef @.str.29, ptr noundef %16)
  br label %18

18:                                               ; preds = %13
  %19 = load ptr, ptr %2, align 8, !tbaa !65
  %20 = getelementptr inbounds nuw %struct.curl_slist, ptr %19, i32 0, i32 1
  %21 = load ptr, ptr %20, align 8, !tbaa !69
  store ptr %21, ptr %2, align 8, !tbaa !65
  br label %10, !llvm.loop !70

22:                                               ; preds = %10
  br label %25

23:                                               ; preds = %0
  %24 = call i32 @puts(ptr noundef @.str.30)
  br label %25

25:                                               ; preds = %23, %22
  %26 = load ptr, ptr %2, align 8, !tbaa !65
  call void @curl_slist_free_all(ptr noundef %26)
  %27 = load ptr, ptr %1, align 8, !tbaa !64
  call void @curl_easy_cleanup(ptr noundef %27)
  call void @llvm.lifetime.end.p0(i64 8, ptr %2) #9
  call void @llvm.lifetime.end.p0(i64 8, ptr %1) #9
  ret void
}