; Function Attrs: nounwind uwtable
define dso_local void @tool_list_engines() local_unnamed_addr #7 {
  %1 = alloca ptr, align 8
  %2 = tail call ptr @curl_easy_init() #16
  call void @llvm.lifetime.start.p0(i64 8, ptr nonnull %1) #16
  store ptr null, ptr %1, align 8, !tbaa !54
  %3 = call i32 (ptr, i32, ...) @curl_easy_getinfo(ptr noundef %2, i32 noundef 4194331, ptr noundef nonnull %1) #16
  %4 = call i32 @puts(ptr noundef nonnull dereferenceable(1) @.str.28)
  %5 = load ptr, ptr %1, align 8, !tbaa !54
  %.not = icmp eq ptr %5, null
  br i1 %.not, label %12, label %.preheader

.preheader:                                       ; preds = %0, %.preheader
  %6 = phi ptr [ %11, %.preheader ], [ %5, %0 ]
  %7 = load ptr, ptr %6, align 8, !tbaa !56
  %8 = call i32 (ptr, ...) @curl_mprintf(ptr noundef nonnull @.str.29, ptr noundef %7) #16
  %9 = load ptr, ptr %1, align 8, !tbaa !54
  %10 = getelementptr inbounds nuw i8, ptr %9, i64 8
  %11 = load ptr, ptr %10, align 8, !tbaa !58
  store ptr %11, ptr %1, align 8, !tbaa !54
  %.not2 = icmp eq ptr %11, null
  br i1 %.not2, label %.loopexit, label %.preheader, !llvm.loop !59

12:                                               ; preds = %0
  %13 = call i32 @puts(ptr noundef nonnull dereferenceable(1) @.str.30)
  %.pre = load ptr, ptr %1, align 8, !tbaa !54
  br label %.loopexit

.loopexit:                                        ; preds = %.preheader, %12
  %14 = phi ptr [ %.pre, %12 ], [ null, %.preheader ]
  call void @curl_slist_free_all(ptr noundef %14) #16
  call void @curl_easy_cleanup(ptr noundef %2) #16
  call void @llvm.lifetime.end.p0(i64 8, ptr nonnull %1) #16
  ret void
}